target datalayout = "e-m:e-p270:32:32-p271:32:32-p272:64:64-i64:64-i128:128-f80:128-n8:16:32:64-S128"
target triple = "x86_64-unknown-linux-gnu"

@.str = private unnamed_addr constant [28 x i8] c"../qemu/system/bootdevice.c\00", align 1
@__func__.validate_bootdevices = private unnamed_addr constant [21 x i8] c"validate_bootdevices\00", align 1
@.str.2 = private unnamed_addr constant [25 x i8] c"Invalid boot device '%c'\00", align 1
@.str.3 = private unnamed_addr constant [33 x i8] c"Boot device '%c' was given twice\00", align 1

; Function Attrs: nounwind sspstrong uwtable
define dso_local void @validate_bootdevices(ptr noundef %devices, ptr noundef %errp) #0 {
entry:
  %devices.addr = alloca ptr, align 8
  %errp.addr = alloca ptr, align 8
  %p = alloca ptr, align 8
  %bitmap = alloca i32, align 4
  store ptr %devices, ptr %devices.addr, align 8
  store ptr %errp, ptr %errp.addr, align 8
  store i32 0, ptr %bitmap, align 4
  %0 = load ptr, ptr %devices.addr, align 8
  store ptr %0, ptr %p, align 8
  br label %for.cond

for.cond:                                         ; preds = %for.inc, %entry
  %1 = load ptr, ptr %p, align 8
  %2 = load i8, ptr %1, align 1
  %conv = sext i8 %2 to i32
  %cmp = icmp ne i32 %conv, 0
  br i1 %cmp, label %for.body, label %for.end

for.body:                                         ; preds = %for.cond
  %3 = load ptr, ptr %p, align 8
  %4 = load i8, ptr %3, align 1
  %conv2 = sext i8 %4 to i32
  %cmp3 = icmp slt i32 %conv2, 97
  br i1 %cmp3, label %if.then, label %lor.lhs.false

lor.lhs.false:                                    ; preds = %for.body
  %5 = load ptr, ptr %p, align 8
  %6 = load i8, ptr %5, align 1
  %conv5 = sext i8 %6 to i32
  %cmp6 = icmp sgt i32 %conv5, 112
  br i1 %cmp6, label %if.then, label %if.end

if.then:                                          ; preds = %lor.lhs.false, %for.body
  %7 = load ptr, ptr %errp.addr, align 8
  %8 = load ptr, ptr %p, align 8
  %9 = load i8, ptr %8, align 1
  %conv8 = sext i8 %9 to i32
  call void (ptr, ptr, i32, ptr, ptr, ...) @error_setg_internal(ptr noundef %7, ptr noundef @.str, i32 noundef 90, ptr noundef @__func__.validate_bootdevices, ptr noundef @.str.2, i32 noundef %conv8)
  br label %for.end

if.end:                                           ; preds = %lor.lhs.false
  %10 = load i32, ptr %bitmap, align 4
  %11 = load ptr, ptr %p, align 8
  %12 = load i8, ptr %11, align 1
  %conv9 = sext i8 %12 to i32
  %sub = sub i32 %conv9, 97
  %shl = shl i32 1, %sub
  %and = and i32 %10, %shl
  %tobool = icmp ne i32 %and, 0
  br i1 %tobool, label %if.then10, label %if.end12

if.then10:                                        ; preds = %if.end
  %13 = load ptr, ptr %errp.addr, align 8
  %14 = load ptr, ptr %p, align 8
  %15 = load i8, ptr %14, align 1
  %conv11 = sext i8 %15 to i32
  call void (ptr, ptr, i32, ptr, ptr, ...) @error_setg_internal(ptr noundef %13, ptr noundef @.str, i32 noundef 94, ptr noundef @__func__.validate_bootdevices, ptr noundef @.str.3, i32 noundef %conv11)
  br label %for.end

if.end12:                                         ; preds = %if.end
  %16 = load ptr, ptr %p, align 8
  %17 = load i8, ptr %16, align 1
  %conv13 = sext i8 %17 to i32
  %sub14 = sub i32 %conv13, 97
  %shl15 = shl i32 1, %sub14
  %18 = load i32, ptr %bitmap, align 4
  %or = or i32 %18, %shl15
  store i32 %or, ptr %bitmap, align 4
  br label %for.inc

for.inc:                                          ; preds = %if.end12
  %19 = load ptr, ptr %p, align 8
  %incdec.ptr = getelementptr i8, ptr %19, i32 1
  store ptr %incdec.ptr, ptr %p, align 8
  br label %for.cond, !llvm.loop !5

for.end:                                          ; preds = %if.then10, %if.then, %for.cond
  ret void
}