; Function Attrs: nounwind sspstrong uwtable
define dso_local void @validate_bootdevices(ptr noundef readonly captures(none) %devices, ptr noundef %errp) local_unnamed_addr #1 {
entry:
  %0 = load i8, ptr %devices, align 1
  %cmp.not13 = icmp eq i8 %0, 0
  br i1 %cmp.not13, label %for.end, label %for.body

for.body:                                         ; preds = %entry, %if.end12
  %1 = phi i8 [ %3, %if.end12 ], [ %0, %entry ]
  %bitmap.015 = phi i32 [ %or, %if.end12 ], [ 0, %entry ]
  %p.014 = phi ptr [ %incdec.ptr, %if.end12 ], [ %devices, %entry ]
  %conv16 = sext i8 %1 to i32
  %2 = add i8 %1, -113
  %or.cond = icmp ult i8 %2, -16
  br i1 %or.cond, label %if.then, label %if.end

if.then:                                          ; preds = %for.body
  tail call void (ptr, ptr, i32, ptr, ptr, ...) @error_setg_internal(ptr noundef %errp, ptr noundef nonnull @.str, i32 noundef 90, ptr noundef nonnull @__func__.validate_bootdevices, ptr noundef nonnull @.str.2, i32 noundef %conv16) #11
  br label %for.end

if.end:                                           ; preds = %for.body
  %sub = add nsw i32 %conv16, -97
  %shl = shl nuw nsw i32 1, %sub
  %and = and i32 %shl, %bitmap.015
  %tobool.not = icmp eq i32 %and, 0
  br i1 %tobool.not, label %if.end12, label %if.then10

if.then10:                                        ; preds = %if.end
  tail call void (ptr, ptr, i32, ptr, ptr, ...) @error_setg_internal(ptr noundef %errp, ptr noundef nonnull @.str, i32 noundef 94, ptr noundef nonnull @__func__.validate_bootdevices, ptr noundef nonnull @.str.3, i32 noundef %conv16) #11
  br label %for.end

if.end12:                                         ; preds = %if.end
  %or = or i32 %shl, %bitmap.015
  %incdec.ptr = getelementptr i8, ptr %p.014, i64 1
  %3 = load i8, ptr %incdec.ptr, align 1
  %cmp.not = icmp eq i8 %3, 0
  br i1 %cmp.not, label %for.end, label %for.body, !llvm.loop !5

for.end:                                          ; preds = %if.end12, %entry, %if.then10, %if.then
  ret void
}